Certificate:
    Data:
        Version: 3 (0x2)
        Serial Number:
            56:2c:50:c8:0d:65:ab:fd:f4:ad:bb:0e:8f:fb:c9:a8:45:df:91:d7
        Signature Algorithm: sha256WithRSAEncryption
        Issuer: C=NO, O=Green AS, OU=Green Certificate Authority, CN=Green TLS CA
        Validity
            Not Before: Jun 12 13:32:05 2021 GMT
            Not After : Jun 12 13:32:05 2023 GMT
        Subject: C=NO, O=Green AS, OU=Green Certificate Authority, CN=servers
        Subject Public Key Info:
            Public Key Algorithm: rsaEncryption
                RSA Public-Key: (4096 bit)
                Modulus:
                    00:d5:1c:a0:98:6b:3e:16:72:4a:03:6b:6c:90:a6:
                    ea:63:8c:26:97:70:7a:1f:3f:86:e3:d5:5f:ba:ee:
                    bc:ec:aa:ea:67:9c:97:64:16:e5:d3:b1:7e:14:69:
                    24:0f:41:2b:d1:27:36:26:7e:fb:ad:59:7e:26:10:
                    b0:45:1e:f3:af:a5:f6:7d:27:ba:bb:94:1b:2d:40:
                    c9:8c:52:da:00:95:6f:1f:34:4c:2b:df:3c:57:15:
                    4a:93:f5:17:d8:02:60:44:93:a4:bc:74:0b:20:8b:
                    28:b7:8c:aa:fc:76:0f:32:42:eb:ab:de:8d:6d:36:
                    5a:37:2f:ae:f8:63:94:f7:08:72:0b:57:be:5e:11:
                    48:dc:b5:45:af:af:63:e2:f5:14:1a:c9:c7:0b:1c:
                    05:d6:d6:a0:8a:a8:6c:65:16:8b:56:1f:b0:79:6f:
                    51:dc:7a:c9:24:07:ce:60:8d:3d:23:e6:15:da:1d:
                    df:09:f2:8a:19:90:85:26:f0:c1:d2:0a:8e:38:a3:
                    84:1e:01:6f:8d:dc:33:5b:7b:60:b6:d3:83:2f:da:
                    91:1c:c5:02:4a:d8:f1:5c:13:5a:dc:9a:57:90:10:
                    43:55:b3:ba:ea:5f:3a:5b:b7:4c:67:6f:80:06:5b:
                    d7:81:6d:96:e7:21:c5:96:35:84:8f:8d:fd:e2:44:
                    37:2b:b7:d4:f1:48:af:52:6b:0d:ca:19:49:12:cf:
                    47:8f:12:ad:3a:18:15:d9:2e:19:43:9b:54:cf:f5:
                    1b:2b:4c:5f:f6:0a:59:46:67:83:5a:41:29:46:71:
                    e0:40:28:19:da:c8:b9:50:01:40:9d:b7:1f:9d:d2:
                    75:d5:fc:ac:6b:3b:a3:de:a8:27:28:77:16:55:69:
                    48:3c:88:23:f3:ac:77:75:55:2c:c5:96:67:ea:9a:
                    f0:7b:04:b9:df:f0:06:d8:46:ff:a9:8c:a7:da:44:
                    f7:89:4e:3a:47:7a:97:1a:df:a1:3d:70:df:14:b2:
                    07:ff:dc:9a:97:8b:47:51:25:80:9d:2f:86:76:ba:
                    b9:c7:e5:6b:fc:d2:10:76:70:d2:0b:6b:4f:46:7d:
                    a2:19:db:04:f4:2f:9c:7c:8b:e9:92:68:81:20:e2:
                    4c:40:db:f3:d3:79:71:2c:89:fc:98:29:50:9b:7f:
                    5f:74:c6:de:59:b8:55:38:21:64:e8:c7:f6:84:27:
                    73:c4:09:fa:11:7b:ea:a7:22:c0:a8:b2:6a:88:9a:
                    bf:58:a7:1d:ad:8a:b6:f0:30:8f:78:64:89:89:25:
                    f7:c7:93:75:ed:54:11:ce:57:43:fe:ba:e6:73:cb:
                    c8:b3:a8:ce:0b:d0:1b:1c:9d:f2:9c:20:cf:7a:8c:
                    51:3c:9b
                Exponent: 65537 (0x10001)
        X509v3 extensions:
            X509v3 Key Usage: critical
                Digital Signature, Key Encipherment
            X509v3 Basic Constraints: 
                CA:FALSE
            X509v3 Extended Key Usage: 
                TLS Web Server Authentication, TLS Web Client Authentication
            X509v3 Subject Key Identifier: 
                3A:EC:42:68:D7:2D:0D:C6:2C:AD:19:61:5F:7B:68:BD:CE:CC:BD:90
            X509v3 Authority Key Identifier: 
                keyid:B3:0C:3B:44:4D:4C:A7:59:27:FF:93:1D:20:25:64:F6:3E:26:04:BB

            Authority Information Access: 
                CA Issuers - URI:http://green.no/ca/tls-ca.cer

            X509v3 CRL Distribution Points: 

                Full Name:
                  URI:http://green.no/ca/tls-ca.crl

            X509v3 Subject Alternative Name: 
                DNS:green.no, DNS:www.green.no, DNS:localhost
    Signature Algorithm: sha256WithRSAEncryption
         64:19:0c:1b:05:5b:ba:f2:08:c8:ad:42:bb:ab:a8:fe:f1:e8:
         78:f4:29:7b:ff:44:76:ec:9e:11:7a:fb:76:e2:3e:f0:0c:49:
         94:ac:0f:48:04:72:48:49:0d:ba:c6:88:15:db:1e:eb:1a:de:
         af:4a:db:02:90:18:7f:e3:ae:a2:b9:9d:82:ac:b9:e2:46:84:
         53:e4:29:2b:8f:7e:74:63:e6:da:e0:9d:9b:ff:ff:6f:47:57:
         45:0f:6d:7a:42:0d:b0:81:04:5a:68:c7:67:32:f0:1e:8c:1d:
         63:41:68:72:c1:21:06:09:32:7a:99:7e:1f:38:c3:4c:4b:40:
         a2:fd:9d:b9:63:de:a2:2b:5b:83:c5:ab:bf:d0:6f:a7:fb:4c:
         ab:41:5b:1f:c4:44:67:ee:97:0f:be:72:e6:de:08:82:00:1d:
         24:a1:74:a8:c5:83:5f:d7:d4:40:6f:b8:ab:45:9f:7d:79:96:
         47:a8:c9:df:74:a6:0d:47:d8:a9:f2:6d:b8:87:ef:20:72:41:
         95:b2:04:10:86:6d:42:10:52:69:34:2a:e0:0b:56:02:dc:80:
         7a:9f:f3:54:01:c9:ed:0b:06:38:c9:2c:e0:ff:31:66:43:4c:
         b5:39:1a:44:e6:3a:98:9c:b3:b3:51:7f:e5:b4:ba:3e:9d:75:
         92:a8:4c:dc:81:3c:93:e6:f7:69:b1:e0:d1:bd:b1:d3:08:e8:
         8f:75:25:2a:91:d9:aa:7e:77:04:f0:6e:47:c6:8b:59:c2:a1:
         01:34:a3:78:d4:b7:a1:1c:2e:6e:ca:be:0b:11:1c:db:ef:50:
         2c:5d:c9:8a:92:c2:ab:77:2e:97:8a:bf:ec:ec:75:2e:97:93:
         3f:c2:46:79:71:08:ce:5f:75:11:6f:a1:80:90:b9:78:d4:92:
         cd:7b:bb:be:e2:24:61:04:7a:52:40:c9:7a:12:43:9e:bb:58:
         9e:77:88:19:f2:0f:a5:85:35:d4:4f:2a:0e:64:66:1e:65:83:
         c6:87:34:1e:36:35:ea:8c:85:b1:ae:1f:20:a8:f7:9b:28:23:
         21:80:4a:24:1a:a2:34:96:83:fc:3b:51:43:5a:bf:a1:83:f1:
         5d:96:87:18:39:b7:c7:ee:7c:2b:1d:17:ff:be:cf:ff:74:36:
         14:0e:16:ab:81:f4:44:a9:5c:af:27:a2:94:c8:ef:c1:5b:5e:
         ae:71:cc:b6:e4:eb:42:38:04:71:44:c3:de:c4:59:53:23:e9:
         7f:40:75:0d:77:d7:e1:52:e3:47:f2:12:01:3e:3d:d9:7f:e9:
         10:5b:f3:63:6e:db:d3:86:ac:e3:1e:46:e8:6e:06:4c:03:8b:
         b9:0a:c1:52:ad:1a:75:30
-----BEGIN CERTIFICATE-----
MIIGXDCCBESgAwIBAgIUVixQyA1lq/30rbsOj/vJqEXfkdcwDQYJKoZIhvcNAQEL
BQAwXTELMAkGA1UEBhMCTk8xETAPBgNVBAoMCEdyZWVuIEFTMSQwIgYDVQQLDBtH
cmVlbiBDZXJ0aWZpY2F0ZSBBdXRob3JpdHkxFTATBgNVBAMMDEdyZWVuIFRMUyBD
QTAeFw0yMTA2MTIxMzMyMDVaFw0yMzA2MTIxMzMyMDVaMFgxCzAJBgNVBAYTAk5P
MREwDwYDVQQKDAhHcmVlbiBBUzEkMCIGA1UECwwbR3JlZW4gQ2VydGlmaWNhdGUg
QXV0aG9yaXR5MRAwDgYDVQQDDAdzZXJ2ZXJzMIICIjANBgkqhkiG9w0BAQEFAAOC
Ag8AMIICCgKCAgEA1RygmGs+FnJKA2tskKbqY4wml3B6Hz+G49Vfuu687KrqZ5yX
ZBbl07F+FGkkD0Er0Sc2Jn77rVl+JhCwRR7zr6X2fSe6u5QbLUDJjFLaAJVvHzRM
K988VxVKk/UX2AJgRJOkvHQLIIsot4yq/HYPMkLrq96NbTZaNy+u+GOU9whyC1e+
XhFI3LVFr69j4vUUGsnHCxwF1tagiqhsZRaLVh+weW9R3HrJJAfOYI09I+YV2h3f
CfKKGZCFJvDB0gqOOKOEHgFvjdwzW3tgttODL9qRHMUCStjxXBNa3JpXkBBDVbO6
6l86W7dMZ2+ABlvXgW2W5yHFljWEj4394kQ3K7fU8UivUmsNyhlJEs9HjxKtOhgV
2S4ZQ5tUz/UbK0xf9gpZRmeDWkEpRnHgQCgZ2si5UAFAnbcfndJ11fysazuj3qgn
KHcWVWlIPIgj86x3dVUsxZZn6prwewS53/AG2Eb/qYyn2kT3iU46R3qXGt+hPXDf
FLIH/9yal4tHUSWAnS+Gdrq5x+Vr/NIQdnDSC2tPRn2iGdsE9C+cfIvpkmiBIOJM
QNvz03lxLIn8mClQm39fdMbeWbhVOCFk6Mf2hCdzxAn6EXvqpyLAqLJqiJq/WKcd
rYq28DCPeGSJiSX3x5N17VQRzldD/rrmc8vIs6jOC9AbHJ3ynCDPeoxRPJsCAwEA
AaOCARcwggETMA4GA1UdDwEB/wQEAwIFoDAJBgNVHRMEAjAAMB0GA1UdJQQWMBQG
CCsGAQUFBwMBBggrBgEFBQcDAjAdBgNVHQ4EFgQUOuxCaNctDcYsrRlhX3tovc7M
vZAwHwYDVR0jBBgwFoAUsww7RE1Mp1kn/5MdICVk9j4mBLswOQYIKwYBBQUHAQEE
LTArMCkGCCsGAQUFBzAChh1odHRwOi8vZ3JlZW4ubm8vY2EvdGxzLWNhLmNlcjAu
BgNVHR8EJzAlMCOgIaAfhh1odHRwOi8vZ3JlZW4ubm8vY2EvdGxzLWNhLmNybDAs
BgNVHREEJTAjgghncmVlbi5ub4IMd3d3LmdyZWVuLm5vgglsb2NhbGhvc3QwDQYJ
KoZIhvcNAQELBQADggIBAGQZDBsFW7ryCMitQrurqP7x6Hj0KXv/RHbsnhF6+3bi
PvAMSZSsD0gEckhJDbrGiBXbHusa3q9K2wKQGH/jrqK5nYKsueJGhFPkKSuPfnRj
5trgnZv//29HV0UPbXpCDbCBBFpox2cy8B6MHWNBaHLBIQYJMnqZfh84w0xLQKL9
nblj3qIrW4PFq7/Qb6f7TKtBWx/ERGfulw++cubeCIIAHSShdKjFg1/X1EBvuKtF
n315lkeoyd90pg1H2KnybbiH7yByQZWyBBCGbUIQUmk0KuALVgLcgHqf81QBye0L
BjjJLOD/MWZDTLU5GkTmOpics7NRf+W0uj6ddZKoTNyBPJPm92mx4NG9sdMI6I91
JSqR2ap+dwTwbkfGi1nCoQE0o3jUt6EcLm7KvgsRHNvvUCxdyYqSwqt3LpeKv+zs
dS6Xkz/CRnlxCM5fdRFvoYCQuXjUks17u77iJGEEelJAyXoSQ567WJ53iBnyD6WF
NdRPKg5kZh5lg8aHNB42NeqMhbGuHyCo95soIyGASiQaojSWg/w7UUNav6GD8V2W
hxg5t8fufCsdF/++z/90NhQOFquB9ESpXK8nopTI78FbXq5xzLbk60I4BHFEw97E
WVMj6X9AdQ131+FS40fyEgE+Pdl/6RBb82Nu29OGrOMeRuhuBkwDi7kKwVKtGnUw
-----END CERTIFICATE-----
